target datalayout = "e-m:e-p270:32:32-p271:32:32-p272:64:64-i64:64-i128:128-f80:128-n8:16:32:64-S128"
target triple = "x86_64-pc-linux-gnu"

%struct.ma_delay_config = type { i32, i32, i32, i32, float, float, float }
%struct.ma_delay = type { %struct.ma_delay_config, i32, i32, ptr }

; Function Attrs: nounwind uwtable
define hidden float @ma_delay_get_decay(ptr noundef %0) #0 {
  %2 = alloca float, align 4
  %3 = alloca ptr, align 8
  store ptr %0, ptr %3, align 8
  %4 = load ptr, ptr %3, align 8
  %5 = icmp eq ptr %4, null
  br i1 %5, label %6, label %7

6:                                                ; preds = %1
  store float 0.000000e+00, ptr %2, align 4
  br label %12

7:                                                ; preds = %1
  %8 = load ptr, ptr %3, align 8
  %9 = getelementptr inbounds nuw %struct.ma_delay, ptr %8, i32 0, i32 0
  %10 = getelementptr inbounds nuw %struct.ma_delay_config, ptr %9, i32 0, i32 6
  %11 = load float, ptr %10, align 8
  store float %11, ptr %2, align 4
  br label %12

12:                                               ; preds = %7, %6
  %13 = load float, ptr %2, align 4
  ret float %13
}