; Function Attrs: mustprogress nofree norecurse nosync nounwind willreturn memory(argmem: read) uwtable
define hidden float @ma_delay_get_decay(ptr noundef readonly captures(address_is_null) %0) local_unnamed_addr #17 {
  %2 = icmp eq ptr %0, null
  br i1 %2, label %6, label %3

3:                                                ; preds = %1
  %4 = getelementptr inbounds nuw i8, ptr %0, i64 24
  %5 = load float, ptr %4, align 8
  br label %6

6:                                                ; preds = %1, %3
  %.0 = phi float [ %5, %3 ], [ 0.000000e+00, %1 ]
  ret float %.0
}